; Function Attrs: mustprogress nounwind uwtable
define void @_ZN8tinyxml27XMLNodeD2Ev(ptr noundef nonnull align 8 dereferenceable(104) initializes((0, 8)) %0) unnamed_addr #0 align 2 personality ptr @__gxx_personality_v0 {
  store ptr getelementptr inbounds nuw inrange(-16, 144) (i8, ptr @_ZTVN8tinyxml27XMLNodeE, i64 16), ptr %0, align 8, !tbaa !63
  %2 = getelementptr inbounds nuw i8, ptr %0, i64 56
  %3 = load ptr, ptr %2, align 8, !tbaa !76
  %.not3.i = icmp eq ptr %3, null
  br i1 %.not3.i, label %.loopexit, label %.lr.ph.i

.lr.ph.i:                                         ; preds = %1
  %4 = getelementptr inbounds nuw i8, ptr %0, i64 64
  br label %5

5:                                                ; preds = %.noexc1, %.lr.ph.i
  %6 = phi ptr [ %3, %.lr.ph.i ], [ %54, %.noexc1 ]
  %7 = getelementptr inbounds nuw i8, ptr %6, i64 80
  %8 = load ptr, ptr %7, align 8, !tbaa !77
  store ptr %8, ptr %2, align 8, !tbaa !76
  %9 = load ptr, ptr %4, align 8, !tbaa !78
  %10 = icmp eq ptr %6, %9
  br i1 %10, label %11, label %14

11:                                               ; preds = %5
  %12 = getelementptr inbounds nuw i8, ptr %9, i64 72
  %13 = load ptr, ptr %12, align 8, !tbaa !79
  store ptr %13, ptr %4, align 8, !tbaa !78
  br label %14

14:                                               ; preds = %11, %5
  %15 = getelementptr inbounds nuw i8, ptr %6, i64 72
  %16 = load ptr, ptr %15, align 8, !tbaa !79
  %.not.i.i.i = icmp eq ptr %16, null
  br i1 %.not.i.i.i, label %._crit_edge.i.i.i, label %17

17:                                               ; preds = %14
  %18 = getelementptr inbounds nuw i8, ptr %16, i64 80
  store ptr %8, ptr %18, align 8, !tbaa !77
  br label %._crit_edge.i.i.i

._crit_edge.i.i.i:                                ; preds = %17, %14
  %.not15.i.i.i = icmp eq ptr %8, null
  br i1 %.not15.i.i.i, label %21, label %19

19:                                               ; preds = %._crit_edge.i.i.i
  %20 = getelementptr inbounds nuw i8, ptr %8, i64 72
  store ptr %16, ptr %20, align 8, !tbaa !79
  br label %21

21:                                               ; preds = %19, %._crit_edge.i.i.i
  %22 = getelementptr inbounds nuw i8, ptr %6, i64 16
  store ptr null, ptr %22, align 8, !tbaa !72
  tail call void @llvm.memset.p0.i64(ptr noundef nonnull align 8 dereferenceable(16) %15, i8 0, i64 16, i1 false)
  %23 = load ptr, ptr %6, align 8, !tbaa !63
  %24 = getelementptr inbounds nuw i8, ptr %23, i64 24
  %25 = load ptr, ptr %24, align 8
  %26 = invoke noundef ptr %25(ptr noundef nonnull align 8 dereferenceable(104) %6)
          to label %.noexc unwind label %80

.noexc:                                           ; preds = %21
  %.not.i3.i.i = icmp eq ptr %26, null
  br i1 %.not.i3.i.i, label %27, label %_ZN8tinyxml27XMLNode11DeleteChildEPS0_.exit.i

27:                                               ; preds = %.noexc
  %28 = getelementptr inbounds nuw i8, ptr %6, i64 8
  %29 = load ptr, ptr %28, align 8, !tbaa !71
  %30 = getelementptr inbounds nuw i8, ptr %29, i64 260
  %31 = load i32, ptr %30, align 4, !tbaa !66
  %32 = icmp sgt i32 %31, 0
  br i1 %32, label %.lr.ph.i.i.i.i, label %_ZN8tinyxml27XMLNode11DeleteChildEPS0_.exit.i

.lr.ph.i.i.i.i:                                   ; preds = %27
  %33 = getelementptr inbounds nuw i8, ptr %29, i64 168
  %34 = load ptr, ptr %33, align 8, !tbaa !68
  %wide.trip.count.i.i.i.i = zext nneg i32 %31 to i64
  br label %36

35:                                               ; preds = %36
  %indvars.iv.next.i.i.i.i = add nuw nsw i64 %indvars.iv.i.i.i.i, 1
  %exitcond.not.i.i.i.i = icmp eq i64 %indvars.iv.next.i.i.i.i, %wide.trip.count.i.i.i.i
  br i1 %exitcond.not.i.i.i.i, label %_ZN8tinyxml27XMLNode11DeleteChildEPS0_.exit.i, label %36, !llvm.loop !80

36:                                               ; preds = %35, %.lr.ph.i.i.i.i
  %indvars.iv.i.i.i.i = phi i64 [ 0, %.lr.ph.i.i.i.i ], [ %indvars.iv.next.i.i.i.i, %35 ]
  %37 = getelementptr inbounds nuw ptr, ptr %34, i64 %indvars.iv.i.i.i.i
  %38 = load ptr, ptr %37, align 8, !tbaa !69
  %39 = icmp eq ptr %6, %38
  br i1 %39, label %40, label %35

40:                                               ; preds = %36
  %41 = getelementptr inbounds nuw ptr, ptr %34, i64 %indvars.iv.i.i.i.i
  %42 = getelementptr ptr, ptr %34, i64 %wide.trip.count.i.i.i.i
  %43 = getelementptr i8, ptr %42, i64 -8
  %44 = load ptr, ptr %43, align 8, !tbaa !69
  store ptr %44, ptr %41, align 8, !tbaa !69
  %45 = add nsw i32 %31, -1
  store i32 %45, ptr %30, align 4, !tbaa !66
  br label %_ZN8tinyxml27XMLNode11DeleteChildEPS0_.exit.i

_ZN8tinyxml27XMLNode11DeleteChildEPS0_.exit.i:    ; preds = %35, %40, %27, %.noexc
  %46 = getelementptr inbounds nuw i8, ptr %6, i64 96
  %47 = load ptr, ptr %46, align 8, !tbaa !65
  %48 = load ptr, ptr %6, align 8, !tbaa !63
  %49 = getelementptr inbounds nuw i8, ptr %48, i64 120
  %50 = load ptr, ptr %49, align 8
  tail call void %50(ptr noundef nonnull align 8 dereferenceable(104) %6) #31
  %51 = load ptr, ptr %47, align 8, !tbaa !63
  %52 = getelementptr inbounds nuw i8, ptr %51, i64 32
  %53 = load ptr, ptr %52, align 8
  invoke void %53(ptr noundef nonnull align 8 dereferenceable(8) %47, ptr noundef nonnull %6)
          to label %.noexc1 unwind label %80

.noexc1:                                          ; preds = %_ZN8tinyxml27XMLNode11DeleteChildEPS0_.exit.i
  %54 = load ptr, ptr %2, align 8, !tbaa !76
  %.not.i = icmp eq ptr %54, null
  br i1 %.not.i, label %.loopexit, label %5, !llvm.loop !81

.loopexit:                                        ; preds = %.noexc1, %1
  tail call void @llvm.memset.p0.i64(ptr noundef nonnull align 8 dereferenceable(16) %2, i8 0, i64 16, i1 false)
  %55 = getelementptr inbounds nuw i8, ptr %0, i64 16
  %56 = load ptr, ptr %55, align 8, !tbaa !72
  %.not = icmp eq ptr %56, null
  br i1 %.not, label %78, label %57

57:                                               ; preds = %.loopexit
  %58 = getelementptr inbounds nuw i8, ptr %56, i64 56
  %59 = load ptr, ptr %58, align 8, !tbaa !76
  %60 = icmp eq ptr %0, %59
  br i1 %60, label %61, label %64

61:                                               ; preds = %57
  %62 = getelementptr inbounds nuw i8, ptr %59, i64 80
  %63 = load ptr, ptr %62, align 8, !tbaa !77
  store ptr %63, ptr %58, align 8, !tbaa !76
  br label %64

64:                                               ; preds = %61, %57
  %65 = getelementptr inbounds nuw i8, ptr %56, i64 64
  %66 = load ptr, ptr %65, align 8, !tbaa !78
  %67 = icmp eq ptr %0, %66
  br i1 %67, label %68, label %71

68:                                               ; preds = %64
  %69 = getelementptr inbounds nuw i8, ptr %66, i64 72
  %70 = load ptr, ptr %69, align 8, !tbaa !79
  store ptr %70, ptr %65, align 8, !tbaa !78
  br label %71

71:                                               ; preds = %68, %64
  %72 = getelementptr inbounds nuw i8, ptr %0, i64 72
  %73 = load ptr, ptr %72, align 8, !tbaa !79
  %.not.i2 = icmp eq ptr %73, null
  %.phi.trans.insert.i = getelementptr inbounds nuw i8, ptr %0, i64 80
  %.pre.i = load ptr, ptr %.phi.trans.insert.i, align 8, !tbaa !77
  br i1 %.not.i2, label %._crit_edge.i, label %74

74:                                               ; preds = %71
  %75 = getelementptr inbounds nuw i8, ptr %73, i64 80
  store ptr %.pre.i, ptr %75, align 8, !tbaa !77
  br label %._crit_edge.i

._crit_edge.i:                                    ; preds = %74, %71
  %.not15.i = icmp eq ptr %.pre.i, null
  br i1 %.not15.i, label %_ZN8tinyxml27XMLNode6UnlinkEPS0_.exit, label %76

76:                                               ; preds = %._crit_edge.i
  %77 = getelementptr inbounds nuw i8, ptr %.pre.i, i64 72
  store ptr %73, ptr %77, align 8, !tbaa !79
  br label %_ZN8tinyxml27XMLNode6UnlinkEPS0_.exit

_ZN8tinyxml27XMLNode6UnlinkEPS0_.exit:            ; preds = %._crit_edge.i, %76
  store ptr null, ptr %55, align 8, !tbaa !72
  tail call void @llvm.memset.p0.i64(ptr noundef nonnull align 8 dereferenceable(16) %72, i8 0, i64 16, i1 false)
  br label %78

78:                                               ; preds = %_ZN8tinyxml27XMLNode6UnlinkEPS0_.exit, %.loopexit
  %79 = getelementptr inbounds nuw i8, ptr %0, i64 24
  tail call void @_ZN8tinyxml27StrPairD1Ev(ptr noundef nonnull align 8 dereferenceable(24) %79) #31
  ret void

80:                                               ; preds = %_ZN8tinyxml27XMLNode11DeleteChildEPS0_.exit.i, %21
  %81 = landingpad { ptr, i32 }
          catch ptr null
  %82 = extractvalue { ptr, i32 } %81, 0
  tail call void @__clang_call_terminate(ptr %82) #32
  unreachable
}